Archive member included because of file (symbol)

/usr/lib/gcc/avr/4.8.1/avr5/libgcc.a(_udivmodhi4.o)
                              placaAdicionalChopper.o (__udivmodhi4)
/usr/lib/gcc/avr/4.8.1/avr5/libgcc.a(_divmodhi4.o)
                              placaAdicionalChopper.o (__divmodhi4)
/usr/lib/gcc/avr/4.8.1/avr5/libgcc.a(_udivmodsi4.o)
                              placaAdicionalChopper.o (__udivmodsi4)
/usr/lib/gcc/avr/4.8.1/avr5/libgcc.a(_exit.o)
                              /usr/lib/gcc/avr/4.8.1/../../../avr/lib/avr5/crtm328p.o (exit)
/usr/lib/gcc/avr/4.8.1/avr5/libgcc.a(_tablejump.o)
                              placaAdicionalChopper.o (__tablejump2__)
/usr/lib/gcc/avr/4.8.1/avr5/libgcc.a(_copy_data.o)
                              placaAdicionalChopper.o (__do_copy_data)
/usr/lib/gcc/avr/4.8.1/avr5/libgcc.a(_clear_bss.o)
                              placaAdicionalChopper.o (__do_clear_bss)
/usr/lib/gcc/avr/4.8.1/avr5/libgcc.a(_ashrdi3.o)
                              ATmega328.o (__lshrdi3)
/usr/lib/gcc/avr/4.8.1/../../../avr/lib/avr5/libc.a(strcat.o)
                              placaAdicionalChopper.o (strcat)
/usr/lib/gcc/avr/4.8.1/../../../avr/lib/avr5/libc.a(strcpy.o)
                              placaAdicionalChopper.o (strcpy)
/usr/lib/gcc/avr/4.8.1/../../../avr/lib/avr5/libc.a(iob.o)
                              ATmega328.o (__iob)

Allocating common symbols
Common symbol       size              file

usartReceiverBuffer
                    0x32              ATmega328.o
flags               0x1               placaAdicionalChopper.o
usartReceiverBufferNextWrite
                    0x1               ATmega328.o
usartReceiverBufferLength
                    0x1               ATmega328.o
usartReceiverBufferNextRead
                    0x1               ATmega328.o
__iob               0x6               /usr/lib/gcc/avr/4.8.1/../../../avr/lib/avr5/libc.a(iob.o)
status              0x9               placaAdicionalChopper.o

Memory Configuration

Name             Origin             Length             Attributes
text             0x0000000000000000 0x0000000000020000 xr
data             0x0000000000800060 0x000000000000ffa0 rw !x
eeprom           0x0000000000810000 0x0000000000010000 rw !x
fuse             0x0000000000820000 0x0000000000000400 rw !x
lock             0x0000000000830000 0x0000000000000400 rw !x
signature        0x0000000000840000 0x0000000000000400 rw !x
user_signatures  0x0000000000850000 0x0000000000000400 rw !x
*default*        0x0000000000000000 0xffffffffffffffff

Linker script and memory map

Address of section .data set to 0x800100
LOAD /usr/lib/gcc/avr/4.8.1/../../../avr/lib/avr5/crtm328p.o
LOAD placaAdicionalChopper.o
LOAD ATmega328.o
LOAD mcp2515.o
LOAD spi.o
LOAD mcp2515_set_mode.o
LOAD mcp2515_get_message.o
LOAD mcp2515_read_id.o
LOAD mcp2515_buffer.o
LOAD mcp2515_write_id.o
LOAD mcp2515_send_message.o
START GROUP
LOAD /usr/lib/gcc/avr/4.8.1/avr5/libgcc.a
LOAD /usr/lib/gcc/avr/4.8.1/../../../avr/lib/avr5/libm.a
LOAD /usr/lib/gcc/avr/4.8.1/../../../avr/lib/avr5/libc.a
END GROUP

.hash
 *(.hash)

.dynsym
 *(.dynsym)

.dynstr
 *(.dynstr)

.gnu.version
 *(.gnu.version)

.gnu.version_d
 *(.gnu.version_d)

.gnu.version_r
 *(.gnu.version_r)

.rel.init
 *(.rel.init)

.rela.init
 *(.rela.init)

.rel.text
 *(.rel.text)
 *(.rel.text.*)
 *(.rel.gnu.linkonce.t*)

.rela.text
 *(.rela.text)
 *(.rela.text.*)
 *(.rela.gnu.linkonce.t*)

.rel.fini
 *(.rel.fini)

.rela.fini
 *(.rela.fini)

.rel.rodata
 *(.rel.rodata)
 *(.rel.rodata.*)
 *(.rel.gnu.linkonce.r*)

.rela.rodata
 *(.rela.rodata)
 *(.rela.rodata.*)
 *(.rela.gnu.linkonce.r*)

.rel.data
 *(.rel.data)
 *(.rel.data.*)
 *(.rel.gnu.linkonce.d*)

.rela.data
 *(.rela.data)
 *(.rela.data.*)
 *(.rela.gnu.linkonce.d*)

.rel.ctors
 *(.rel.ctors)

.rela.ctors
 *(.rela.ctors)

.rel.dtors
 *(.rel.dtors)

.rela.dtors
 *(.rela.dtors)

.rel.got
 *(.rel.got)

.rela.got
 *(.rela.got)

.rel.bss
 *(.rel.bss)

.rela.bss
 *(.rela.bss)

.rel.plt
 *(.rel.plt)

.rela.plt
 *(.rela.plt)

.text           0x0000000000000000     0x2046
 *(.vectors)
 .vectors       0x0000000000000000       0x68 /usr/lib/gcc/avr/4.8.1/../../../avr/lib/avr5/crtm328p.o
                0x0000000000000000                __vectors
                0x0000000000000000                __vector_default
 *(.vectors)
 *(.progmem.gcc*)
 .progmem.gcc_sw_table
                0x0000000000000068       0x30 placaAdicionalChopper.o
 .progmem.gcc_sw_table
                0x0000000000000098       0x30 ATmega328.o
                0x00000000000000c8                . = ALIGN (0x2)
                0x00000000000000c8                __trampolines_start = .
 *(.trampolines)
 .trampolines   0x00000000000000c8        0x0 linker stubs
 *(.trampolines*)
                0x00000000000000c8                __trampolines_end = .
 *(.progmem*)
 .progmem.data  0x00000000000000c8       0x18 mcp2515.o
                0x00000000000000c8                _mcp2515_cnf
                0x00000000000000e0                . = ALIGN (0x2)
 *(.jumptables)
 *(.jumptables*)
 *(.lowtext)
 *(.lowtext*)
                0x00000000000000e0                __ctors_start = .
 *(.ctors)
                0x00000000000000e0                __ctors_end = .
                0x00000000000000e0                __dtors_start = .
 *(.dtors)
                0x00000000000000e0                __dtors_end = .
 SORT(*)(.ctors)
 SORT(*)(.dtors)
 *(.init0)
 .init0         0x00000000000000e0        0x0 /usr/lib/gcc/avr/4.8.1/../../../avr/lib/avr5/crtm328p.o
                0x00000000000000e0                __init
 *(.init0)
 *(.init1)
 *(.init1)
 *(.init2)
 .init2         0x00000000000000e0        0xc /usr/lib/gcc/avr/4.8.1/../../../avr/lib/avr5/crtm328p.o
 *(.init2)
 *(.init3)
 *(.init3)
 *(.init4)
 .init4         0x00000000000000ec       0x16 /usr/lib/gcc/avr/4.8.1/avr5/libgcc.a(_copy_data.o)
                0x00000000000000ec                __do_copy_data
 .init4         0x0000000000000102       0x10 /usr/lib/gcc/avr/4.8.1/avr5/libgcc.a(_clear_bss.o)
                0x0000000000000102                __do_clear_bss
 *(.init4)
 *(.init5)
 *(.init5)
 *(.init6)
 *(.init6)
 *(.init7)
 *(.init7)
 *(.init8)
 *(.init8)
 *(.init9)
 .init9         0x0000000000000112        0x8 /usr/lib/gcc/avr/4.8.1/../../../avr/lib/avr5/crtm328p.o
 *(.init9)
 *(.text)
 .text          0x000000000000011a        0x4 /usr/lib/gcc/avr/4.8.1/../../../avr/lib/avr5/crtm328p.o
                0x000000000000011a                __vector_22
                0x000000000000011a                __vector_1
                0x000000000000011a                __vector_24
                0x000000000000011a                __bad_interrupt
                0x000000000000011a                __vector_6
                0x000000000000011a                __vector_3
                0x000000000000011a                __vector_23
                0x000000000000011a                __vector_25
                0x000000000000011a                __vector_13
                0x000000000000011a                __vector_17
                0x000000000000011a                __vector_19
                0x000000000000011a                __vector_7
                0x000000000000011a                __vector_5
                0x000000000000011a                __vector_4
                0x000000000000011a                __vector_9
                0x000000000000011a                __vector_2
                0x000000000000011a                __vector_15
                0x000000000000011a                __vector_8
                0x000000000000011a                __vector_14
                0x000000000000011a                __vector_10
                0x000000000000011a                __vector_20
 .text          0x000000000000011e      0x4d4 placaAdicionalChopper.o
                0x000000000000011e                seta_dc
                0x0000000000000168                esvaziaBuffer
                0x0000000000000178                stringTransmit
                0x00000000000001a8                uint16ToString4
                0x0000000000000210                uint8ToString4
                0x0000000000000266                string4ToUint16
                0x00000000000002bc                string4Touint8
                0x00000000000002e0                __vector_21
                0x00000000000003e0                __vector_11
                0x0000000000000408                __vector_12
                0x000000000000042a                __vector_16
                0x00000000000005a6                __vector_18
 .text          0x00000000000005f2     0x10e4 ATmega328.o
                0x00000000000005f2                usartReceiveStd
                0x0000000000000602                globalInterruptEnable
                0x0000000000000606                globalInterruptDisable
                0x000000000000060a                systemClockSetPrescaler
                0x0000000000000656                eepromSetOperationMode
                0x0000000000000668                eepromReadyActivateInterrupt
                0x000000000000066c                eepromReadyDeactivateInterrupt
                0x0000000000000670                eepromWrite
                0x000000000000068a                eepromRead
                0x000000000000069a                globalPullUpEnable
                0x00000000000006a2                pullUpDisable
                0x00000000000006aa                int0Config
                0x0000000000000708                int0ActivateInterrupt
                0x000000000000070c                int0DeactivateInterrupt
                0x0000000000000710                int0ClearInterruptRequest
                0x0000000000000714                int1Config
                0x0000000000000772                int1ActivateInterrupt
                0x0000000000000776                int1DeactivateInterrupt
                0x000000000000077a                int1ClearInterruptRequest
                0x000000000000077e                pcint7_0Enable
                0x000000000000078a                pcint7_0Disable
                0x0000000000000796                pcint7_0ClearInterruptRequest
                0x000000000000079a                pcint0ActivateInterrupt
                0x00000000000007d6                pcint0DeactivateInterrupt
                0x00000000000007e2                pcint1ActivateInterrupt
                0x000000000000081e                pcint1DeactivateInterrupt
                0x000000000000082a                pcint2ActivateInterrupt
                0x0000000000000866                pcint2DeactivateInterrupt
                0x0000000000000872                pcint3ActivateInterrupt
                0x00000000000008ae                pcint3DeactivateInterrupt
                0x00000000000008ba                pcint4ActivateInterrupt
                0x00000000000008f6                pcint4DeactivateInterrupt
                0x0000000000000902                pcint5ActivateInterrupt
                0x000000000000093e                pcint5DeactivateInterrupt
                0x000000000000094a                pcint6ActivateInterrupt
                0x0000000000000986                pcint6DeactivateInterrupt
                0x0000000000000992                pcint7ActivateInterrupt
                0x00000000000009ce                pcint7DeactivateInterrupt
                0x00000000000009da                pcint14_8Enable
                0x00000000000009e6                pcint14_8Disable
                0x00000000000009f2                pcint14_8ClearInterruptRequest
                0x00000000000009f6                pcint8ActivateInterrupt
                0x0000000000000a32                pcint8DeactivateInterrupt
                0x0000000000000a3e                pcint9ActivateInterrupt
                0x0000000000000a7a                pcint9DeactivateInterrupt
                0x0000000000000a86                pcint10ActivateInterrupt
                0x0000000000000ac2                pcint10DeactivateInterrupt
                0x0000000000000ace                pcint11ActivateInterrupt
                0x0000000000000b0a                pcint11DeactivateInterrupt
                0x0000000000000b16                pcint12ActivateInterrupt
                0x0000000000000b52                pcint12DeactivateInterrupt
                0x0000000000000b5e                pcint13ActivateInterrupt
                0x0000000000000b9a                pcint13DeactivateInterrupt
                0x0000000000000ba6                pcint14ActivateInterrupt
                0x0000000000000be2                pcint14DeactivateInterrupt
                0x0000000000000bee                pcint23_16Enable
                0x0000000000000bfa                pcint23_16Disable
                0x0000000000000c06                pcint23_16ClearInterruptRequest
                0x0000000000000c0a                pcint16ActivateInterrupt
                0x0000000000000c46                pcint16DeactivateInterrupt
                0x0000000000000c52                pcint17ActivateInterrupt
                0x0000000000000c8e                pcint17DeactivateInterrupt
                0x0000000000000c9a                pcint18ActivateInterrupt
                0x0000000000000cd6                pcint18DeactivateInterrupt
                0x0000000000000ce2                pcint19ActivateInterrupt
                0x0000000000000d1e                pcint19DeactivateInterrupt
                0x0000000000000d2a                pcint20ActivateInterrupt
                0x0000000000000d66                pcint20DeactivateInterrupt
                0x0000000000000d72                pcint21ActivateInterrupt
                0x0000000000000dae                pcint21DeactivateInterrupt
                0x0000000000000dba                pcint22ActivateInterrupt
                0x0000000000000df6                pcint22DeactivateInterrupt
                0x0000000000000e02                pcint23ActivateInterrupt
                0x0000000000000e3e                pcint23DeactivateInterrupt
                0x0000000000000e4a                timer0Config
                0x0000000000000ec6                timer0OutputConfig
                0x0000000000000f18                timer0ActivateOverflowInterrupt
                0x0000000000000f24                timer0DeactivateOverflowInterrupt
                0x0000000000000f30                timer0ClearOverflowInterruptRequest
                0x0000000000000f34                timer0ActivateCompareAInterrupt
                0x0000000000000f40                timer0DeactivateCompareAInterrupt
                0x0000000000000f4c                timer0ClearCompareAInterruptRequest
                0x0000000000000f50                timer0ActivateCompareBInterrupt
                0x0000000000000f5c                timer0DeactivateCompareBInterrupt
                0x0000000000000f68                timer0ClearCompareBInterruptRequest
                0x0000000000000f6c                timer0ForceCompareA
                0x0000000000000f74                timer0ForceCompareB
                0x0000000000000f7c                timer0SetCounterValue
                0x0000000000000f80                timer0GetCounterValue
                0x0000000000000f84                timer0SetCompareAValue
                0x0000000000000f88                timer0GetCompareAValue
                0x0000000000000f8c                timer0SetCompareBValue
                0x0000000000000f90                timer0GetCompareBValue
                0x0000000000000f94                timer1Config
                0x0000000000000fce                timer1OutputConfig
                0x0000000000000ffa                timer1InputCaptureNoiseCancelerConfig
                0x000000000000100a                timer1ActivateOverflowInterrupt
                0x0000000000001018                timer1DeactivateOverflowInterrupt
                0x0000000000001026                timer1ClearOverflowInterruptRequest
                0x000000000000102c                timer1ActivateCompareAInterrupt
                0x000000000000103a                timer1DeactivateCompareAInterrupt
                0x0000000000001048                timer1ClearCompareAInterruptRequest
                0x000000000000104e                timer1ActivateCompareBInterrupt
                0x000000000000105c                timer1DeactivateCompareBInterrupt
                0x000000000000106a                timer1ClearCompareBInterruptRequest
                0x0000000000001070                timer1ActivateInputCaptureInterrupt
                0x000000000000107e                timer1DeactivateInputCaptureInterrupt
                0x000000000000108c                timer1ClearInputCaptureInterruptRequest
                0x0000000000001092                timer1ForceCompareA
                0x00000000000010a0                timer1ForceCompareB
                0x00000000000010ae                timer1SetCounterValue
                0x00000000000010c0                timer1GetCounterValue
                0x00000000000010ca                timer1SetCompareAValue
                0x00000000000010dc                timer1GetCompareAValue
                0x00000000000010e6                timer1SetCompareBValue
                0x00000000000010f8                timer1GetCompareBValue
                0x0000000000001102                timer1SetInputCaptureValue
                0x0000000000001114                timer1GetInputCaptureValue
                0x000000000000111e                timer2Config
                0x000000000000114e                timer2OutputConfig
                0x000000000000117a                timer2ActivateOverflowInterrupt
                0x0000000000001188                timer2DeactivateOverflowInterrupt
                0x0000000000001196                timer2ClearOverflowInterruptRequest
                0x000000000000119c                timer2ActivateCompareAInterrupt
                0x00000000000011aa                timer2DeactivateCompareAInterrupt
                0x00000000000011b8                timer2ClearCompareAInterruptRequest
                0x00000000000011be                timer2ActivateCompareBInterrupt
                0x00000000000011cc                timer2DeactivateCompareBInterrupt
                0x00000000000011da                timer2ClearCompareBInterruptRequest
                0x00000000000011e0                timer2ForceCompareA
                0x00000000000011ee                timer2ForceCompareB
                0x00000000000011fc                timer2SetCounterValue
                0x0000000000001204                timer2GetCounterValue
                0x000000000000120a                timer2SetCompareAValue
                0x0000000000001212                timer2GetCompareAValue
                0x0000000000001218                timer2SetCompareBValue
                0x0000000000001220                timer2GetCompareBValue
                0x0000000000001226                adcConfig
                0x00000000000012a8                adcSelectChannel
                0x00000000000012b8                adcEnableDigitalInput
                0x00000000000012c8                adcDisableDigitalInput
                0x00000000000012d6                adcDataPresentation
                0x00000000000012f0                adcEnable
                0x00000000000012fe                adcDisable
                0x000000000000130c                adcClearInterruptRequest
                0x000000000000131a                adcActivateInterrupt
                0x0000000000001328                adcDeactivateInterrupt
                0x0000000000001336                adcStartConversion
                0x0000000000001344                adcIsBusy
                0x0000000000001350                adcWaitUntilConversionFinish
                0x000000000000135c                usartConfig
                0x0000000000001466                usartEnableReceiver
                0x0000000000001474                usartDisableReceiver
                0x0000000000001482                usartEnableTransmitter
                0x0000000000001490                usartDisableTransmitter
                0x000000000000149e                usartActivateReceptionCompleteInterrupt
                0x00000000000014ac                usartDeactivateReceptionCompleteInterrupt
                0x00000000000014ba                usartActivateTransmissionCompleteInterrupt
                0x00000000000014c8                usartDeactivateTransmissionCompleteInterrupt
                0x00000000000014d6                usartActivateBufferEmptyInterrupt
                0x00000000000014e4                usartDeactivateBufferEmptyInterrupt
                0x00000000000014f2                usartStdio
                0x0000000000001512                usartIsReceptionComplete
                0x000000000000151e                usartIsTransmissionComplete
                0x000000000000152a                usartIsBufferEmpty
                0x0000000000001536                usartTransmitStd
                0x000000000000154c                usartCheckError
                0x0000000000001576                usartTransmit
                0x000000000000158c                usartTransmit9bits
                0x00000000000015be                usartReceive
                0x00000000000015d0                usartReceive9bits
                0x00000000000015f6                usartClearReceptionBuffer
                0x0000000000001606                usartAddDataToReceiverBuffer
                0x0000000000001666                usartGetDataFromReceiverBuffer
                0x00000000000016aa                usartIsReceiverBufferEmpty
                0x00000000000016b6                usartGetCurrentBaudRate
                0x00000000000016be                spiInit
                0x00000000000016c0                spiMasterTransmit
                0x00000000000016cc                spiSlaveTransmit
 .text          0x00000000000016d6      0x180 mcp2515.o
                0x00000000000016d6                mcp2515_write_register
                0x0000000000001708                mcp2515_read_register
                0x0000000000001726                mcp2515_bit_modify
                0x0000000000001764                mcp2515_read_status
                0x0000000000001774                can_init
 .text          0x0000000000001856       0x16 spi.o
                0x0000000000001856                mcp2515_spi_init
                0x0000000000001860                spi_putc
 .text          0x000000000000186c       0x40 mcp2515_set_mode.o
                0x000000000000186c                can_set_mode
 .text          0x00000000000018ac       0xbc mcp2515_get_message.o
                0x00000000000018ac                can_get_message
 .text          0x0000000000001968       0x6c mcp2515_read_id.o
                0x0000000000001968                mcp2515_read_id
 .text          0x00000000000019d4       0x1c mcp2515_buffer.o
                0x00000000000019d4                can_check_message
                0x00000000000019dc                can_check_free_buffer
 .text          0x00000000000019f0       0x32 mcp2515_write_id.o
                0x00000000000019f0                mcp2515_write_id
 .text          0x0000000000001a22       0xa8 mcp2515_send_message.o
                0x0000000000001a22                can_send_message
 .text          0x0000000000001aca        0x0 /usr/lib/gcc/avr/4.8.1/avr5/libgcc.a(_udivmodhi4.o)
 .text          0x0000000000001aca        0x0 /usr/lib/gcc/avr/4.8.1/avr5/libgcc.a(_divmodhi4.o)
 .text          0x0000000000001aca        0x0 /usr/lib/gcc/avr/4.8.1/avr5/libgcc.a(_udivmodsi4.o)
 .text          0x0000000000001aca        0x0 /usr/lib/gcc/avr/4.8.1/avr5/libgcc.a(_exit.o)
 .text          0x0000000000001aca        0x0 /usr/lib/gcc/avr/4.8.1/avr5/libgcc.a(_tablejump.o)
 .text          0x0000000000001aca        0x0 /usr/lib/gcc/avr/4.8.1/avr5/libgcc.a(_copy_data.o)
 .text          0x0000000000001aca        0x0 /usr/lib/gcc/avr/4.8.1/avr5/libgcc.a(_clear_bss.o)
 .text          0x0000000000001aca        0x0 /usr/lib/gcc/avr/4.8.1/avr5/libgcc.a(_ashrdi3.o)
 .text          0x0000000000001aca        0x0 /usr/lib/gcc/avr/4.8.1/../../../avr/lib/avr5/libc.a(strcat.o)
 .text          0x0000000000001aca        0x0 /usr/lib/gcc/avr/4.8.1/../../../avr/lib/avr5/libc.a(strcpy.o)
 .text          0x0000000000001aca        0x0 /usr/lib/gcc/avr/4.8.1/../../../avr/lib/avr5/libc.a(iob.o)
                0x0000000000001aca                . = ALIGN (0x2)
 *(.text.*)
 .text.startup  0x0000000000001aca      0x478 placaAdicionalChopper.o
                0x0000000000001aca                main
 .text.libgcc.mul
                0x0000000000001f42        0x0 /usr/lib/gcc/avr/4.8.1/avr5/libgcc.a(_udivmodhi4.o)
 .text.libgcc.div
                0x0000000000001f42       0x28 /usr/lib/gcc/avr/4.8.1/avr5/libgcc.a(_udivmodhi4.o)
                0x0000000000001f42                __udivmodhi4
 .text.libgcc   0x0000000000001f6a        0x0 /usr/lib/gcc/avr/4.8.1/avr5/libgcc.a(_udivmodhi4.o)
 .text.libgcc.prologue
                0x0000000000001f6a        0x0 /usr/lib/gcc/avr/4.8.1/avr5/libgcc.a(_udivmodhi4.o)
 .text.libgcc.builtins
                0x0000000000001f6a        0x0 /usr/lib/gcc/avr/4.8.1/avr5/libgcc.a(_udivmodhi4.o)
 .text.libgcc.fmul
                0x0000000000001f6a        0x0 /usr/lib/gcc/avr/4.8.1/avr5/libgcc.a(_udivmodhi4.o)
 .text.libgcc.fixed
                0x0000000000001f6a        0x0 /usr/lib/gcc/avr/4.8.1/avr5/libgcc.a(_udivmodhi4.o)
 .text.libgcc.mul
                0x0000000000001f6a        0x0 /usr/lib/gcc/avr/4.8.1/avr5/libgcc.a(_divmodhi4.o)
 .text.libgcc.div
                0x0000000000001f6a       0x28 /usr/lib/gcc/avr/4.8.1/avr5/libgcc.a(_divmodhi4.o)
                0x0000000000001f6a                __divmodhi4
                0x0000000000001f6a                _div
 .text.libgcc   0x0000000000001f92        0x0 /usr/lib/gcc/avr/4.8.1/avr5/libgcc.a(_divmodhi4.o)
 .text.libgcc.prologue
                0x0000000000001f92        0x0 /usr/lib/gcc/avr/4.8.1/avr5/libgcc.a(_divmodhi4.o)
 .text.libgcc.builtins
                0x0000000000001f92        0x0 /usr/lib/gcc/avr/4.8.1/avr5/libgcc.a(_divmodhi4.o)
 .text.libgcc.fmul
                0x0000000000001f92        0x0 /usr/lib/gcc/avr/4.8.1/avr5/libgcc.a(_divmodhi4.o)
 .text.libgcc.fixed
                0x0000000000001f92        0x0 /usr/lib/gcc/avr/4.8.1/avr5/libgcc.a(_divmodhi4.o)
 .text.libgcc.mul
                0x0000000000001f92        0x0 /usr/lib/gcc/avr/4.8.1/avr5/libgcc.a(_udivmodsi4.o)
 .text.libgcc.div
                0x0000000000001f92       0x44 /usr/lib/gcc/avr/4.8.1/avr5/libgcc.a(_udivmodsi4.o)
                0x0000000000001f92                __udivmodsi4
 .text.libgcc   0x0000000000001fd6        0x0 /usr/lib/gcc/avr/4.8.1/avr5/libgcc.a(_udivmodsi4.o)
 .text.libgcc.prologue
                0x0000000000001fd6        0x0 /usr/lib/gcc/avr/4.8.1/avr5/libgcc.a(_udivmodsi4.o)
 .text.libgcc.builtins
                0x0000000000001fd6        0x0 /usr/lib/gcc/avr/4.8.1/avr5/libgcc.a(_udivmodsi4.o)
 .text.libgcc.fmul
                0x0000000000001fd6        0x0 /usr/lib/gcc/avr/4.8.1/avr5/libgcc.a(_udivmodsi4.o)
 .text.libgcc.fixed
                0x0000000000001fd6        0x0 /usr/lib/gcc/avr/4.8.1/avr5/libgcc.a(_udivmodsi4.o)
 .text.libgcc.mul
                0x0000000000001fd6        0x0 /usr/lib/gcc/avr/4.8.1/avr5/libgcc.a(_exit.o)
 .text.libgcc.div
                0x0000000000001fd6        0x0 /usr/lib/gcc/avr/4.8.1/avr5/libgcc.a(_exit.o)
 .text.libgcc   0x0000000000001fd6        0x0 /usr/lib/gcc/avr/4.8.1/avr5/libgcc.a(_exit.o)
 .text.libgcc.prologue
                0x0000000000001fd6        0x0 /usr/lib/gcc/avr/4.8.1/avr5/libgcc.a(_exit.o)
 .text.libgcc.builtins
                0x0000000000001fd6        0x0 /usr/lib/gcc/avr/4.8.1/avr5/libgcc.a(_exit.o)
 .text.libgcc.fmul
                0x0000000000001fd6        0x0 /usr/lib/gcc/avr/4.8.1/avr5/libgcc.a(_exit.o)
 .text.libgcc.fixed
                0x0000000000001fd6        0x0 /usr/lib/gcc/avr/4.8.1/avr5/libgcc.a(_exit.o)
 .text.libgcc.mul
                0x0000000000001fd6        0x0 /usr/lib/gcc/avr/4.8.1/avr5/libgcc.a(_tablejump.o)
 .text.libgcc.div
                0x0000000000001fd6        0x0 /usr/lib/gcc/avr/4.8.1/avr5/libgcc.a(_tablejump.o)
 .text.libgcc   0x0000000000001fd6        0xc /usr/lib/gcc/avr/4.8.1/avr5/libgcc.a(_tablejump.o)
                0x0000000000001fd6                __tablejump2__
                0x0000000000001fda                __tablejump__
 .text.libgcc.prologue
                0x0000000000001fe2        0x0 /usr/lib/gcc/avr/4.8.1/avr5/libgcc.a(_tablejump.o)
 .text.libgcc.builtins
                0x0000000000001fe2        0x0 /usr/lib/gcc/avr/4.8.1/avr5/libgcc.a(_tablejump.o)
 .text.libgcc.fmul
                0x0000000000001fe2        0x0 /usr/lib/gcc/avr/4.8.1/avr5/libgcc.a(_tablejump.o)
 .text.libgcc.fixed
                0x0000000000001fe2        0x0 /usr/lib/gcc/avr/4.8.1/avr5/libgcc.a(_tablejump.o)
 .text.libgcc.mul
                0x0000000000001fe2        0x0 /usr/lib/gcc/avr/4.8.1/avr5/libgcc.a(_copy_data.o)
 .text.libgcc.div
                0x0000000000001fe2        0x0 /usr/lib/gcc/avr/4.8.1/avr5/libgcc.a(_copy_data.o)
 .text.libgcc   0x0000000000001fe2        0x0 /usr/lib/gcc/avr/4.8.1/avr5/libgcc.a(_copy_data.o)
 .text.libgcc.prologue
                0x0000000000001fe2        0x0 /usr/lib/gcc/avr/4.8.1/avr5/libgcc.a(_copy_data.o)
 .text.libgcc.builtins
                0x0000000000001fe2        0x0 /usr/lib/gcc/avr/4.8.1/avr5/libgcc.a(_copy_data.o)
 .text.libgcc.fmul
                0x0000000000001fe2        0x0 /usr/lib/gcc/avr/4.8.1/avr5/libgcc.a(_copy_data.o)
 .text.libgcc.fixed
                0x0000000000001fe2        0x0 /usr/lib/gcc/avr/4.8.1/avr5/libgcc.a(_copy_data.o)
 .text.libgcc.mul
                0x0000000000001fe2        0x0 /usr/lib/gcc/avr/4.8.1/avr5/libgcc.a(_clear_bss.o)
 .text.libgcc.div
                0x0000000000001fe2        0x0 /usr/lib/gcc/avr/4.8.1/avr5/libgcc.a(_clear_bss.o)
 .text.libgcc   0x0000000000001fe2        0x0 /usr/lib/gcc/avr/4.8.1/avr5/libgcc.a(_clear_bss.o)
 .text.libgcc.prologue
                0x0000000000001fe2        0x0 /usr/lib/gcc/avr/4.8.1/avr5/libgcc.a(_clear_bss.o)
 .text.libgcc.builtins
                0x0000000000001fe2        0x0 /usr/lib/gcc/avr/4.8.1/avr5/libgcc.a(_clear_bss.o)
 .text.libgcc.fmul
                0x0000000000001fe2        0x0 /usr/lib/gcc/avr/4.8.1/avr5/libgcc.a(_clear_bss.o)
 .text.libgcc.fixed
                0x0000000000001fe2        0x0 /usr/lib/gcc/avr/4.8.1/avr5/libgcc.a(_clear_bss.o)
 .text.libgcc.mul
                0x0000000000001fe2        0x0 /usr/lib/gcc/avr/4.8.1/avr5/libgcc.a(_ashrdi3.o)
 .text.libgcc.div
                0x0000000000001fe2        0x0 /usr/lib/gcc/avr/4.8.1/avr5/libgcc.a(_ashrdi3.o)
 .text.libgcc   0x0000000000001fe2        0x0 /usr/lib/gcc/avr/4.8.1/avr5/libgcc.a(_ashrdi3.o)
 .text.libgcc.prologue
                0x0000000000001fe2        0x0 /usr/lib/gcc/avr/4.8.1/avr5/libgcc.a(_ashrdi3.o)
 .text.libgcc.builtins
                0x0000000000001fe2       0x3c /usr/lib/gcc/avr/4.8.1/avr5/libgcc.a(_ashrdi3.o)
                0x0000000000001fe2                __ashrdi3
                0x0000000000001fe6                __lshrdi3
 .text.libgcc.fmul
                0x000000000000201e        0x0 /usr/lib/gcc/avr/4.8.1/avr5/libgcc.a(_ashrdi3.o)
 .text.libgcc.fixed
                0x000000000000201e        0x0 /usr/lib/gcc/avr/4.8.1/avr5/libgcc.a(_ashrdi3.o)
 .text.avr-libc
                0x000000000000201e       0x16 /usr/lib/gcc/avr/4.8.1/../../../avr/lib/avr5/libc.a(strcat.o)
                0x000000000000201e                strcat
 .text.avr-libc
                0x0000000000002034        0xe /usr/lib/gcc/avr/4.8.1/../../../avr/lib/avr5/libc.a(strcpy.o)
                0x0000000000002034                strcpy
                0x0000000000002042                . = ALIGN (0x2)
 *(.fini9)
 .fini9         0x0000000000002042        0x0 /usr/lib/gcc/avr/4.8.1/avr5/libgcc.a(_exit.o)
                0x0000000000002042                exit
                0x0000000000002042                _exit
 *(.fini9)
 *(.fini8)
 *(.fini8)
 *(.fini7)
 *(.fini7)
 *(.fini6)
 *(.fini6)
 *(.fini5)
 *(.fini5)
 *(.fini4)
 *(.fini4)
 *(.fini3)
 *(.fini3)
 *(.fini2)
 *(.fini2)
 *(.fini1)
 *(.fini1)
 *(.fini0)
 .fini0         0x0000000000002042        0x4 /usr/lib/gcc/avr/4.8.1/avr5/libgcc.a(_exit.o)
 *(.fini0)
                0x0000000000002046                _etext = .

.data           0x0000000000800100       0x36 load address 0x0000000000002046
                0x0000000000800100                PROVIDE (__data_start, .)
 *(.data)
 .data          0x0000000000800100        0x0 /usr/lib/gcc/avr/4.8.1/../../../avr/lib/avr5/crtm328p.o
 .data          0x0000000000800100        0xa placaAdicionalChopper.o
                0x0000000000800100                minVoltage
                0x0000000000800101                criticalTemp
                0x0000000000800102                maxTemp
                0x0000000000800103                maxDV
                0x0000000000800104                maxDC
                0x0000000000800105                minDC
                0x0000000000800106                maxCurrent
                0x0000000000800107                cont_can
                0x0000000000800108                cont
 .data          0x000000000080010a        0xe ATmega328.o
                0x000000000080010a                usartStream
 .data          0x0000000000800118        0x0 mcp2515.o
 .data          0x0000000000800118        0x0 spi.o
 .data          0x0000000000800118        0x0 mcp2515_set_mode.o
 .data          0x0000000000800118        0x0 mcp2515_get_message.o
 .data          0x0000000000800118        0x0 mcp2515_read_id.o
 .data          0x0000000000800118        0x0 mcp2515_buffer.o
 .data          0x0000000000800118        0x0 mcp2515_write_id.o
 .data          0x0000000000800118        0x0 mcp2515_send_message.o
 .data          0x0000000000800118        0x0 /usr/lib/gcc/avr/4.8.1/avr5/libgcc.a(_udivmodhi4.o)
 .data          0x0000000000800118        0x0 /usr/lib/gcc/avr/4.8.1/avr5/libgcc.a(_divmodhi4.o)
 .data          0x0000000000800118        0x0 /usr/lib/gcc/avr/4.8.1/avr5/libgcc.a(_udivmodsi4.o)
 .data          0x0000000000800118        0x0 /usr/lib/gcc/avr/4.8.1/avr5/libgcc.a(_exit.o)
 .data          0x0000000000800118        0x0 /usr/lib/gcc/avr/4.8.1/avr5/libgcc.a(_tablejump.o)
 .data          0x0000000000800118        0x0 /usr/lib/gcc/avr/4.8.1/avr5/libgcc.a(_copy_data.o)
 .data          0x0000000000800118        0x0 /usr/lib/gcc/avr/4.8.1/avr5/libgcc.a(_clear_bss.o)
 .data          0x0000000000800118        0x0 /usr/lib/gcc/avr/4.8.1/avr5/libgcc.a(_ashrdi3.o)
 .data          0x0000000000800118        0x0 /usr/lib/gcc/avr/4.8.1/../../../avr/lib/avr5/libc.a(strcat.o)
 .data          0x0000000000800118        0x0 /usr/lib/gcc/avr/4.8.1/../../../avr/lib/avr5/libc.a(strcpy.o)
 .data          0x0000000000800118        0x0 /usr/lib/gcc/avr/4.8.1/../../../avr/lib/avr5/libc.a(iob.o)
 *(.data*)
 *(.rodata)
 *(.rodata*)
 .rodata.str1.1
                0x0000000000800118       0x1d placaAdicionalChopper.o
 *(.gnu.linkonce.d*)
                0x0000000000800136                . = ALIGN (0x2)
 *fill*         0x0000000000800135        0x1 
                0x0000000000800136                _edata = .
                0x0000000000800136                PROVIDE (__data_end, .)

.bss            0x0000000000800136       0x47
                0x0000000000800136                PROVIDE (__bss_start, .)
 *(.bss)
 .bss           0x0000000000800136        0x0 /usr/lib/gcc/avr/4.8.1/../../../avr/lib/avr5/crtm328p.o
 .bss           0x0000000000800136        0x2 placaAdicionalChopper.o
                0x0000000000800136                dcReq
                0x0000000000800137                channel
 .bss           0x0000000000800138        0x0 ATmega328.o
 .bss           0x0000000000800138        0x0 mcp2515.o
 .bss           0x0000000000800138        0x0 spi.o
 .bss           0x0000000000800138        0x0 mcp2515_set_mode.o
 .bss           0x0000000000800138        0x0 mcp2515_get_message.o
 .bss           0x0000000000800138        0x0 mcp2515_read_id.o
 .bss           0x0000000000800138        0x0 mcp2515_buffer.o
 .bss           0x0000000000800138        0x0 mcp2515_write_id.o
 .bss           0x0000000000800138        0x0 mcp2515_send_message.o
 .bss           0x0000000000800138        0x0 /usr/lib/gcc/avr/4.8.1/avr5/libgcc.a(_udivmodhi4.o)
 .bss           0x0000000000800138        0x0 /usr/lib/gcc/avr/4.8.1/avr5/libgcc.a(_divmodhi4.o)
 .bss           0x0000000000800138        0x0 /usr/lib/gcc/avr/4.8.1/avr5/libgcc.a(_udivmodsi4.o)
 .bss           0x0000000000800138        0x0 /usr/lib/gcc/avr/4.8.1/avr5/libgcc.a(_exit.o)
 .bss           0x0000000000800138        0x0 /usr/lib/gcc/avr/4.8.1/avr5/libgcc.a(_tablejump.o)
 .bss           0x0000000000800138        0x0 /usr/lib/gcc/avr/4.8.1/avr5/libgcc.a(_copy_data.o)
 .bss           0x0000000000800138        0x0 /usr/lib/gcc/avr/4.8.1/avr5/libgcc.a(_clear_bss.o)
 .bss           0x0000000000800138        0x0 /usr/lib/gcc/avr/4.8.1/avr5/libgcc.a(_ashrdi3.o)
 .bss           0x0000000000800138        0x0 /usr/lib/gcc/avr/4.8.1/../../../avr/lib/avr5/libc.a(strcat.o)
 .bss           0x0000000000800138        0x0 /usr/lib/gcc/avr/4.8.1/../../../avr/lib/avr5/libc.a(strcpy.o)
 .bss           0x0000000000800138        0x0 /usr/lib/gcc/avr/4.8.1/../../../avr/lib/avr5/libc.a(iob.o)
 *(.bss*)
 *(COMMON)
 COMMON         0x0000000000800138        0xa placaAdicionalChopper.o
                0x0000000000800138                flags
                0x0000000000800139                status
 COMMON         0x0000000000800142       0x35 ATmega328.o
                0x0000000000800142                usartReceiverBuffer
                0x0000000000800174                usartReceiverBufferNextWrite
                0x0000000000800175                usartReceiverBufferLength
                0x0000000000800176                usartReceiverBufferNextRead
 COMMON         0x0000000000800177        0x6 /usr/lib/gcc/avr/4.8.1/../../../avr/lib/avr5/libc.a(iob.o)
                0x0000000000800177                __iob
                0x000000000080017d                PROVIDE (__bss_end, .)
                0x0000000000002046                __data_load_start = LOADADDR (.data)
                0x000000000000207c                __data_load_end = (__data_load_start + SIZEOF (.data))

.noinit         0x000000000080017d        0x0
                0x000000000080017d                PROVIDE (__noinit_start, .)
 *(.noinit*)
                0x000000000080017d                PROVIDE (__noinit_end, .)
                0x000000000080017d                _end = .
                0x000000000080017d                PROVIDE (__heap_start, .)

.eeprom         0x0000000000810000        0x0
 *(.eeprom*)
                0x0000000000810000                __eeprom_end = .

.fuse
 *(.fuse)
 *(.lfuse)
 *(.hfuse)
 *(.efuse)

.lock
 *(.lock*)

.signature
 *(.signature*)

.user_signatures
 *(.user_signatures*)

.stab
 *(.stab)

.stabstr
 *(.stabstr)

.stab.excl
 *(.stab.excl)

.stab.exclstr
 *(.stab.exclstr)

.stab.index
 *(.stab.index)

.stab.indexstr
 *(.stab.indexstr)

.comment        0x0000000000000000       0x11
 *(.comment)
 .comment       0x0000000000000000       0x11 placaAdicionalChopper.o
                                         0x12 (size before relaxing)
 .comment       0x0000000000000000       0x12 ATmega328.o
 .comment       0x0000000000000000       0x12 mcp2515.o
 .comment       0x0000000000000000       0x12 spi.o
 .comment       0x0000000000000000       0x12 mcp2515_set_mode.o
 .comment       0x0000000000000000       0x12 mcp2515_get_message.o
 .comment       0x0000000000000000       0x12 mcp2515_read_id.o
 .comment       0x0000000000000000       0x12 mcp2515_buffer.o
 .comment       0x0000000000000000       0x12 mcp2515_write_id.o
 .comment       0x0000000000000000       0x12 mcp2515_send_message.o
 .comment       0x0000000000000000       0x12 /usr/lib/gcc/avr/4.8.1/../../../avr/lib/avr5/libc.a(iob.o)

.note.gnu.build-id
 *(.note.gnu.build-id)

.debug
 *(.debug)

.line
 *(.line)

.debug_srcinfo
 *(.debug_srcinfo)

.debug_sfnames
 *(.debug_sfnames)

.debug_aranges  0x0000000000000000      0x148
 *(.debug_aranges)
 .debug_aranges
                0x0000000000000000       0x28 placaAdicionalChopper.o
 .debug_aranges
                0x0000000000000028       0x20 ATmega328.o
 .debug_aranges
                0x0000000000000048       0x20 mcp2515.o
 .debug_aranges
                0x0000000000000068       0x20 spi.o
 .debug_aranges
                0x0000000000000088       0x20 mcp2515_set_mode.o
 .debug_aranges
                0x00000000000000a8       0x20 mcp2515_get_message.o
 .debug_aranges
                0x00000000000000c8       0x20 mcp2515_read_id.o
 .debug_aranges
                0x00000000000000e8       0x20 mcp2515_buffer.o
 .debug_aranges
                0x0000000000000108       0x20 mcp2515_write_id.o
 .debug_aranges
                0x0000000000000128       0x20 mcp2515_send_message.o

.debug_pubnames
 *(.debug_pubnames)

.debug_info     0x0000000000000000     0x4612
 *(.debug_info .gnu.linkonce.wi.*)
 .debug_info    0x0000000000000000     0x1196 placaAdicionalChopper.o
 .debug_info    0x0000000000001196     0x241f ATmega328.o
 .debug_info    0x00000000000035b5      0x513 mcp2515.o
 .debug_info    0x0000000000003ac8       0xb7 spi.o
 .debug_info    0x0000000000003b7f      0x13e mcp2515_set_mode.o
 .debug_info    0x0000000000003cbd      0x28b mcp2515_get_message.o
 .debug_info    0x0000000000003f48      0x1b3 mcp2515_read_id.o
 .debug_info    0x00000000000040fb       0xea mcp2515_buffer.o
 .debug_info    0x00000000000041e5      0x157 mcp2515_write_id.o
 .debug_info    0x000000000000433c      0x2d6 mcp2515_send_message.o

.debug_abbrev   0x0000000000000000     0x1039
 *(.debug_abbrev)
 .debug_abbrev  0x0000000000000000      0x3ab placaAdicionalChopper.o
 .debug_abbrev  0x00000000000003ab      0x377 ATmega328.o
 .debug_abbrev  0x0000000000000722      0x1d4 mcp2515.o
 .debug_abbrev  0x00000000000008f6       0x78 spi.o
 .debug_abbrev  0x000000000000096e       0xe3 mcp2515_set_mode.o
 .debug_abbrev  0x0000000000000a51      0x142 mcp2515_get_message.o
 .debug_abbrev  0x0000000000000b93      0x123 mcp2515_read_id.o
 .debug_abbrev  0x0000000000000cb6       0xad mcp2515_buffer.o
 .debug_abbrev  0x0000000000000d63      0x123 mcp2515_write_id.o
 .debug_abbrev  0x0000000000000e86      0x1b3 mcp2515_send_message.o

.debug_line     0x0000000000000000      0xdcb
 *(.debug_line .debug_line.* .debug_line_end)
 .debug_line    0x0000000000000000      0x238 placaAdicionalChopper.o
 .debug_line    0x0000000000000238      0x60a ATmega328.o
 .debug_line    0x0000000000000842       0xf7 mcp2515.o
 .debug_line    0x0000000000000939       0x70 spi.o
 .debug_line    0x00000000000009a9       0xa0 mcp2515_set_mode.o
 .debug_line    0x0000000000000a49       0xc4 mcp2515_get_message.o
 .debug_line    0x0000000000000b0d       0xa4 mcp2515_read_id.o
 .debug_line    0x0000000000000bb1       0x8a mcp2515_buffer.o
 .debug_line    0x0000000000000c3b       0x8d mcp2515_write_id.o
 .debug_line    0x0000000000000cc8      0x103 mcp2515_send_message.o

.debug_frame    0x0000000000000000     0x1020
 *(.debug_frame)
 .debug_frame   0x0000000000000000      0x230 placaAdicionalChopper.o
 .debug_frame   0x0000000000000230      0xbb8 ATmega328.o
 .debug_frame   0x0000000000000de8       0xbc mcp2515.o
 .debug_frame   0x0000000000000ea4       0x34 spi.o
 .debug_frame   0x0000000000000ed8       0x30 mcp2515_set_mode.o
 .debug_frame   0x0000000000000f08       0x48 mcp2515_get_message.o
 .debug_frame   0x0000000000000f50       0x34 mcp2515_read_id.o
 .debug_frame   0x0000000000000f84       0x34 mcp2515_buffer.o
 .debug_frame   0x0000000000000fb8       0x24 mcp2515_write_id.o
 .debug_frame   0x0000000000000fdc       0x44 mcp2515_send_message.o

.debug_str      0x0000000000000000     0x28c5
 *(.debug_str)
 .debug_str     0x0000000000000000     0x11f3 placaAdicionalChopper.o
                                       0x1259 (size before relaxing)
 .debug_str     0x00000000000011f3     0x14cf ATmega328.o
                                       0x2440 (size before relaxing)
 .debug_str     0x00000000000026c2       0xba mcp2515.o
                                        0x341 (size before relaxing)
 .debug_str     0x000000000000277c       0x15 spi.o
                                        0x1b7 (size before relaxing)
 .debug_str     0x0000000000002791       0x22 mcp2515_set_mode.o
                                        0x221 (size before relaxing)
 .debug_str     0x00000000000027b3       0x3a mcp2515_get_message.o
                                        0x225 (size before relaxing)
 .debug_str     0x00000000000027ed       0x3a mcp2515_read_id.o
                                        0x1e4 (size before relaxing)
 .debug_str     0x0000000000002827       0x36 mcp2515_buffer.o
                                        0x1ec (size before relaxing)
 .debug_str     0x000000000000285d       0x33 mcp2515_write_id.o
                                        0x1e0 (size before relaxing)
 .debug_str     0x0000000000002890       0x35 mcp2515_send_message.o
                                        0x263 (size before relaxing)

.debug_loc      0x0000000000000000     0x2377
 *(.debug_loc)
 .debug_loc     0x0000000000000000      0x849 placaAdicionalChopper.o
 .debug_loc     0x0000000000000849     0x12d4 ATmega328.o
 .debug_loc     0x0000000000001b1d      0x3e3 mcp2515.o
 .debug_loc     0x0000000000001f00       0x1f spi.o
 .debug_loc     0x0000000000001f1f       0x6f mcp2515_set_mode.o
 .debug_loc     0x0000000000001f8e      0x14a mcp2515_get_message.o
 .debug_loc     0x00000000000020d8       0xd8 mcp2515_read_id.o
 .debug_loc     0x00000000000021b0       0x13 mcp2515_buffer.o
 .debug_loc     0x00000000000021c3       0x5c mcp2515_write_id.o
 .debug_loc     0x000000000000221f      0x158 mcp2515_send_message.o

.debug_macinfo
 *(.debug_macinfo)

.debug_weaknames
 *(.debug_weaknames)

.debug_funcnames
 *(.debug_funcnames)

.debug_typenames
 *(.debug_typenames)

.debug_varnames
 *(.debug_varnames)

.debug_pubtypes
 *(.debug_pubtypes)

.debug_ranges   0x0000000000000000       0x68
 *(.debug_ranges)
 .debug_ranges  0x0000000000000000       0x68 placaAdicionalChopper.o

.debug_macro
 *(.debug_macro)
OUTPUT(placaAdicionalChopper.elf elf32-avr)
LOAD linker stubs
